; Function Attrs: mustprogress uwtable
define internal void @_ZNK6google8protobuf8compiler3cpp12_GLOBAL__N_117RepeatedPrimitive28GenerateAggregateInitializerEPNS0_2io7PrinterE(ptr nocapture noundef nonnull readonly align 8 dereferenceable(104) %this, ptr noundef %p) unnamed_addr #3 align 2 {
entry:
  %ref.tmp3 = alloca %"class.absl::lts_20230802::log_internal::LogMessageFatal", align 8
  %should_split_.i = getelementptr inbounds i8, ptr %this, i64 64
  %0 = load i8, ptr %should_split_.i, align 8
  %1 = and i8 %0, 1
  %tobool.i.not = icmp eq i8 %1, 0
  br i1 %tobool.i.not, label %cleanup.done, label %cond.false

cond.false:                                       ; preds = %entry
  call void @_ZN4absl12lts_2023080212log_internal15LogMessageFatalC1EPKciSt17basic_string_viewIcSt11char_traitsIcEE(ptr noundef nonnull align 8 dereferenceable(16) %ref.tmp3, ptr noundef nonnull @.str.46, i32 noundef 358, i64 15, ptr nonnull @.str.71) #29
  call void @_ZN4absl12lts_2023080212log_internal15LogMessageFatalD1Ev(ptr noundef nonnull align 8 dereferenceable(16) %ref.tmp3) #28
  unreachable

cleanup.done:                                     ; preds = %entry
  tail call void @_ZN6google8protobuf2io7Printer4EmitEN4absl12lts_202308024SpanIKNS2_3SubEEESt17basic_string_viewIcSt11char_traitsIcEENS2_14SourceLocationE(ptr noundef nonnull align 8 dereferenceable(256) %p, ptr null, i64 0, i64 38, ptr nonnull @.str.79)
  %call.i = tail call fastcc noundef zeroext i1 @_ZNK6google8protobuf8compiler3cpp12_GLOBAL__N_117RepeatedPrimitive13HasCachedSizeEv(ptr noundef nonnull align 8 dereferenceable(104) %this)
  br i1 %call.i, label %if.end.i, label %_ZNK6google8protobuf8compiler3cpp12_GLOBAL__N_117RepeatedPrimitive28GenerateCacheSizeInitializerEPNS0_2io7PrinterE.exit

if.end.i:                                         ; preds = %cleanup.done
  tail call void @_ZN6google8protobuf2io7Printer4EmitEN4absl12lts_202308024SpanIKNS2_3SubEEESt17basic_string_viewIcSt11char_traitsIcEENS2_14SourceLocationE(ptr noundef nonnull align 8 dereferenceable(256) %p, ptr null, i64 0, i64 51, ptr nonnull @.str.80)
  br label %_ZNK6google8protobuf8compiler3cpp12_GLOBAL__N_117RepeatedPrimitive28GenerateCacheSizeInitializerEPNS0_2io7PrinterE.exit

_ZNK6google8protobuf8compiler3cpp12_GLOBAL__N_117RepeatedPrimitive28GenerateCacheSizeInitializerEPNS0_2io7PrinterE.exit: ; preds = %cleanup.done, %if.end.i
  ret void
}